target datalayout = "e-m:e-p270:32:32-p271:32:32-p272:64:64-i64:64-i128:128-f80:128-n8:16:32:64-S128"
target triple = "x86_64-pc-linux-gnu"

; Function Attrs: nounwind uwtable
define internal void @ps_stereo_interpolate_c(ptr noundef %0, ptr noundef %1, ptr noundef %2, ptr noundef %3, i32 noundef %4) #1 {
  %6 = alloca ptr, align 8
  %7 = alloca ptr, align 8
  %8 = alloca ptr, align 8
  %9 = alloca ptr, align 8
  %10 = alloca i32, align 4
  %11 = alloca float, align 4
  %12 = alloca float, align 4
  %13 = alloca float, align 4
  %14 = alloca float, align 4
  %15 = alloca float, align 4
  %16 = alloca float, align 4
  %17 = alloca float, align 4
  %18 = alloca float, align 4
  %19 = alloca i32, align 4
  %20 = alloca float, align 4
  %21 = alloca float, align 4
  %22 = alloca float, align 4
  %23 = alloca float, align 4
  store ptr %0, ptr %6, align 8, !tbaa !17
  store ptr %1, ptr %7, align 8, !tbaa !17
  store ptr %2, ptr %8, align 8, !tbaa !17
  store ptr %3, ptr %9, align 8, !tbaa !17
  store i32 %4, ptr %10, align 4, !tbaa !19
  call void @llvm.lifetime.start.p0(i64 4, ptr %11) #4
  %24 = load ptr, ptr %8, align 8, !tbaa !17
  %25 = getelementptr inbounds [4 x float], ptr %24, i64 0
  %26 = getelementptr inbounds [4 x float], ptr %25, i64 0, i64 0
  %27 = load float, ptr %26, align 4, !tbaa !21
  store float %27, ptr %11, align 4, !tbaa !21
  call void @llvm.lifetime.start.p0(i64 4, ptr %12) #4
  %28 = load ptr, ptr %8, align 8, !tbaa !17
  %29 = getelementptr inbounds [4 x float], ptr %28, i64 0
  %30 = getelementptr inbounds [4 x float], ptr %29, i64 0, i64 1
  %31 = load float, ptr %30, align 4, !tbaa !21
  store float %31, ptr %12, align 4, !tbaa !21
  call void @llvm.lifetime.start.p0(i64 4, ptr %13) #4
  %32 = load ptr, ptr %8, align 8, !tbaa !17
  %33 = getelementptr inbounds [4 x float], ptr %32, i64 0
  %34 = getelementptr inbounds [4 x float], ptr %33, i64 0, i64 2
  %35 = load float, ptr %34, align 4, !tbaa !21
  store float %35, ptr %13, align 4, !tbaa !21
  call void @llvm.lifetime.start.p0(i64 4, ptr %14) #4
  %36 = load ptr, ptr %8, align 8, !tbaa !17
  %37 = getelementptr inbounds [4 x float], ptr %36, i64 0
  %38 = getelementptr inbounds [4 x float], ptr %37, i64 0, i64 3
  %39 = load float, ptr %38, align 4, !tbaa !21
  store float %39, ptr %14, align 4, !tbaa !21
  call void @llvm.lifetime.start.p0(i64 4, ptr %15) #4
  %40 = load ptr, ptr %9, align 8, !tbaa !17
  %41 = getelementptr inbounds [4 x float], ptr %40, i64 0
  %42 = getelementptr inbounds [4 x float], ptr %41, i64 0, i64 0
  %43 = load float, ptr %42, align 4, !tbaa !21
  store float %43, ptr %15, align 4, !tbaa !21
  call void @llvm.lifetime.start.p0(i64 4, ptr %16) #4
  %44 = load ptr, ptr %9, align 8, !tbaa !17
  %45 = getelementptr inbounds [4 x float], ptr %44, i64 0
  %46 = getelementptr inbounds [4 x float], ptr %45, i64 0, i64 1
  %47 = load float, ptr %46, align 4, !tbaa !21
  store float %47, ptr %16, align 4, !tbaa !21
  call void @llvm.lifetime.start.p0(i64 4, ptr %17) #4
  %48 = load ptr, ptr %9, align 8, !tbaa !17
  %49 = getelementptr inbounds [4 x float], ptr %48, i64 0
  %50 = getelementptr inbounds [4 x float], ptr %49, i64 0, i64 2
  %51 = load float, ptr %50, align 4, !tbaa !21
  store float %51, ptr %17, align 4, !tbaa !21
  call void @llvm.lifetime.start.p0(i64 4, ptr %18) #4
  %52 = load ptr, ptr %9, align 8, !tbaa !17
  %53 = getelementptr inbounds [4 x float], ptr %52, i64 0
  %54 = getelementptr inbounds [4 x float], ptr %53, i64 0, i64 3
  %55 = load float, ptr %54, align 4, !tbaa !21
  store float %55, ptr %18, align 4, !tbaa !21
  call void @llvm.lifetime.start.p0(i64 4, ptr %19) #4
  store i32 0, ptr %19, align 4, !tbaa !19
  br label %56

56:                                               ; preds = %141, %5
  %57 = load i32, ptr %19, align 4, !tbaa !19
  %58 = load i32, ptr %10, align 4, !tbaa !19
  %59 = icmp slt i32 %57, %58
  br i1 %59, label %60, label %144

60:                                               ; preds = %56
  call void @llvm.lifetime.start.p0(i64 4, ptr %20) #4
  %61 = load ptr, ptr %6, align 8, !tbaa !17
  %62 = load i32, ptr %19, align 4, !tbaa !19
  %63 = sext i32 %62 to i64
  %64 = getelementptr inbounds [2 x float], ptr %61, i64 %63
  %65 = getelementptr inbounds [2 x float], ptr %64, i64 0, i64 0
  %66 = load float, ptr %65, align 4, !tbaa !21
  store float %66, ptr %20, align 4, !tbaa !21
  call void @llvm.lifetime.start.p0(i64 4, ptr %21) #4
  %67 = load ptr, ptr %6, align 8, !tbaa !17
  %68 = load i32, ptr %19, align 4, !tbaa !19
  %69 = sext i32 %68 to i64
  %70 = getelementptr inbounds [2 x float], ptr %67, i64 %69
  %71 = getelementptr inbounds [2 x float], ptr %70, i64 0, i64 1
  %72 = load float, ptr %71, align 4, !tbaa !21
  store float %72, ptr %21, align 4, !tbaa !21
  call void @llvm.lifetime.start.p0(i64 4, ptr %22) #4
  %73 = load ptr, ptr %7, align 8, !tbaa !17
  %74 = load i32, ptr %19, align 4, !tbaa !19
  %75 = sext i32 %74 to i64
  %76 = getelementptr inbounds [2 x float], ptr %73, i64 %75
  %77 = getelementptr inbounds [2 x float], ptr %76, i64 0, i64 0
  %78 = load float, ptr %77, align 4, !tbaa !21
  store float %78, ptr %22, align 4, !tbaa !21
  call void @llvm.lifetime.start.p0(i64 4, ptr %23) #4
  %79 = load ptr, ptr %7, align 8, !tbaa !17
  %80 = load i32, ptr %19, align 4, !tbaa !19
  %81 = sext i32 %80 to i64
  %82 = getelementptr inbounds [2 x float], ptr %79, i64 %81
  %83 = getelementptr inbounds [2 x float], ptr %82, i64 0, i64 1
  %84 = load float, ptr %83, align 4, !tbaa !21
  store float %84, ptr %23, align 4, !tbaa !21
  %85 = load float, ptr %15, align 4, !tbaa !21
  %86 = load float, ptr %11, align 4, !tbaa !21
  %87 = fadd nsz float %86, %85
  store float %87, ptr %11, align 4, !tbaa !21
  %88 = load float, ptr %16, align 4, !tbaa !21
  %89 = load float, ptr %12, align 4, !tbaa !21
  %90 = fadd nsz float %89, %88
  store float %90, ptr %12, align 4, !tbaa !21
  %91 = load float, ptr %17, align 4, !tbaa !21
  %92 = load float, ptr %13, align 4, !tbaa !21
  %93 = fadd nsz float %92, %91
  store float %93, ptr %13, align 4, !tbaa !21
  %94 = load float, ptr %18, align 4, !tbaa !21
  %95 = load float, ptr %14, align 4, !tbaa !21
  %96 = fadd nsz float %95, %94
  store float %96, ptr %14, align 4, !tbaa !21
  %97 = load float, ptr %11, align 4, !tbaa !21
  %98 = load float, ptr %20, align 4, !tbaa !21
  %99 = load float, ptr %13, align 4, !tbaa !21
  %100 = load float, ptr %22, align 4, !tbaa !21
  %101 = fmul nsz float %99, %100
  %102 = call nsz float @llvm.fmuladd.f32(float %97, float %98, float %101)
  %103 = load ptr, ptr %6, align 8, !tbaa !17
  %104 = load i32, ptr %19, align 4, !tbaa !19
  %105 = sext i32 %104 to i64
  %106 = getelementptr inbounds [2 x float], ptr %103, i64 %105
  %107 = getelementptr inbounds [2 x float], ptr %106, i64 0, i64 0
  store float %102, ptr %107, align 4, !tbaa !21
  %108 = load float, ptr %11, align 4, !tbaa !21
  %109 = load float, ptr %21, align 4, !tbaa !21
  %110 = load float, ptr %13, align 4, !tbaa !21
  %111 = load float, ptr %23, align 4, !tbaa !21
  %112 = fmul nsz float %110, %111
  %113 = call nsz float @llvm.fmuladd.f32(float %108, float %109, float %112)
  %114 = load ptr, ptr %6, align 8, !tbaa !17
  %115 = load i32, ptr %19, align 4, !tbaa !19
  %116 = sext i32 %115 to i64
  %117 = getelementptr inbounds [2 x float], ptr %114, i64 %116
  %118 = getelementptr inbounds [2 x float], ptr %117, i64 0, i64 1
  store float %113, ptr %118, align 4, !tbaa !21
  %119 = load float, ptr %12, align 4, !tbaa !21
  %120 = load float, ptr %20, align 4, !tbaa !21
  %121 = load float, ptr %14, align 4, !tbaa !21
  %122 = load float, ptr %22, align 4, !tbaa !21
  %123 = fmul nsz float %121, %122
  %124 = call nsz float @llvm.fmuladd.f32(float %119, float %120, float %123)
  %125 = load ptr, ptr %7, align 8, !tbaa !17
  %126 = load i32, ptr %19, align 4, !tbaa !19
  %127 = sext i32 %126 to i64
  %128 = getelementptr inbounds [2 x float], ptr %125, i64 %127
  %129 = getelementptr inbounds [2 x float], ptr %128, i64 0, i64 0
  store float %124, ptr %129, align 4, !tbaa !21
  %130 = load float, ptr %12, align 4, !tbaa !21
  %131 = load float, ptr %21, align 4, !tbaa !21
  %132 = load float, ptr %14, align 4, !tbaa !21
  %133 = load float, ptr %23, align 4, !tbaa !21
  %134 = fmul nsz float %132, %133
  %135 = call nsz float @llvm.fmuladd.f32(float %130, float %131, float %134)
  %136 = load ptr, ptr %7, align 8, !tbaa !17
  %137 = load i32, ptr %19, align 4, !tbaa !19
  %138 = sext i32 %137 to i64
  %139 = getelementptr inbounds [2 x float], ptr %136, i64 %138
  %140 = getelementptr inbounds [2 x float], ptr %139, i64 0, i64 1
  store float %135, ptr %140, align 4, !tbaa !21
  call void @llvm.lifetime.end.p0(i64 4, ptr %23) #4
  call void @llvm.lifetime.end.p0(i64 4, ptr %22) #4
  call void @llvm.lifetime.end.p0(i64 4, ptr %21) #4
  call void @llvm.lifetime.end.p0(i64 4, ptr %20) #4
  br label %141

141:                                              ; preds = %60
  %142 = load i32, ptr %19, align 4, !tbaa !19
  %143 = add nsw i32 %142, 1
  store i32 %143, ptr %19, align 4, !tbaa !19
  br label %56, !llvm.loop !38

144:                                              ; preds = %56
  call void @llvm.lifetime.end.p0(i64 4, ptr %19) #4
  call void @llvm.lifetime.end.p0(i64 4, ptr %18) #4
  call void @llvm.lifetime.end.p0(i64 4, ptr %17) #4
  call void @llvm.lifetime.end.p0(i64 4, ptr %16) #4
  call void @llvm.lifetime.end.p0(i64 4, ptr %15) #4
  call void @llvm.lifetime.end.p0(i64 4, ptr %14) #4
  call void @llvm.lifetime.end.p0(i64 4, ptr %13) #4
  call void @llvm.lifetime.end.p0(i64 4, ptr %12) #4
  call void @llvm.lifetime.end.p0(i64 4, ptr %11) #4
  ret void
}