; Function Attrs: nofree norecurse nosync nounwind memory(argmem: readwrite) uwtable
define internal void @ps_stereo_interpolate_c(ptr noundef captures(none) %0, ptr noundef captures(none) %1, ptr noundef readonly captures(none) %2, ptr noundef readonly captures(none) %3, i32 noundef %4) #1 {
  %6 = load float, ptr %3, align 4, !tbaa !15
  %7 = getelementptr inbounds nuw i8, ptr %3, i64 4
  %8 = load float, ptr %7, align 4, !tbaa !15
  %9 = getelementptr inbounds nuw i8, ptr %3, i64 8
  %10 = load float, ptr %9, align 4, !tbaa !15
  %11 = getelementptr inbounds nuw i8, ptr %3, i64 12
  %12 = load float, ptr %11, align 4, !tbaa !15
  %13 = icmp sgt i32 %4, 0
  br i1 %13, label %.lr.ph.preheader, label %._crit_edge

.lr.ph.preheader:                                 ; preds = %5
  %14 = getelementptr inbounds nuw i8, ptr %2, i64 12
  %15 = load float, ptr %14, align 4, !tbaa !15
  %16 = getelementptr inbounds nuw i8, ptr %2, i64 8
  %17 = load float, ptr %16, align 4, !tbaa !15
  %18 = getelementptr inbounds nuw i8, ptr %2, i64 4
  %19 = load float, ptr %18, align 4, !tbaa !15
  %20 = load float, ptr %2, align 4, !tbaa !15
  %wide.trip.count = zext nneg i32 %4 to i64
  br label %.lr.ph

.lr.ph:                                           ; preds = %.lr.ph.preheader, %.lr.ph
  %indvars.iv = phi i64 [ 0, %.lr.ph.preheader ], [ %indvars.iv.next, %.lr.ph ]
  %.058 = phi float [ %20, %.lr.ph.preheader ], [ %29, %.lr.ph ]
  %.05057 = phi float [ %19, %.lr.ph.preheader ], [ %30, %.lr.ph ]
  %.05156 = phi float [ %17, %.lr.ph.preheader ], [ %31, %.lr.ph ]
  %.05255 = phi float [ %15, %.lr.ph.preheader ], [ %32, %.lr.ph ]
  %21 = getelementptr inbounds nuw [2 x float], ptr %0, i64 %indvars.iv
  %22 = load float, ptr %21, align 4, !tbaa !15
  %23 = getelementptr inbounds nuw i8, ptr %21, i64 4
  %24 = load float, ptr %23, align 4, !tbaa !15
  %25 = getelementptr inbounds nuw [2 x float], ptr %1, i64 %indvars.iv
  %26 = load float, ptr %25, align 4, !tbaa !15
  %27 = getelementptr inbounds nuw i8, ptr %25, i64 4
  %28 = load float, ptr %27, align 4, !tbaa !15
  %29 = fadd nsz float %6, %.058
  %30 = fadd nsz float %8, %.05057
  %31 = fadd nsz float %10, %.05156
  %32 = fadd nsz float %12, %.05255
  %33 = fmul nsz float %31, %26
  %34 = tail call nsz float @llvm.fmuladd.f32(float %29, float %22, float %33)
  store float %34, ptr %21, align 4, !tbaa !15
  %35 = fmul nsz float %31, %28
  %36 = tail call nsz float @llvm.fmuladd.f32(float %29, float %24, float %35)
  store float %36, ptr %23, align 4, !tbaa !15
  %37 = fmul nsz float %32, %26
  %38 = tail call nsz float @llvm.fmuladd.f32(float %30, float %22, float %37)
  store float %38, ptr %25, align 4, !tbaa !15
  %39 = fmul nsz float %32, %28
  %40 = tail call nsz float @llvm.fmuladd.f32(float %30, float %24, float %39)
  store float %40, ptr %27, align 4, !tbaa !15
  %indvars.iv.next = add nuw nsw i64 %indvars.iv, 1
  %exitcond.not = icmp eq i64 %indvars.iv.next, %wide.trip.count
  br i1 %exitcond.not, label %._crit_edge, label %.lr.ph, !llvm.loop !30

._crit_edge:                                      ; preds = %.lr.ph, %5
  ret void
}